target datalayout = "e-m:e-p270:32:32-p271:32:32-p272:64:64-i64:64-i128:128-f80:128-n8:16:32:64-S128"
target triple = "x86_64-pc-linux-gnu"

%"class.duckdb_apache::thrift::TBase" = type { ptr }
%"class.duckdb_parquet::RowGroup" = type <{ %"class.duckdb_apache::thrift::TBase", %"class.duckdb::vector.34", i64, i64, %"class.duckdb::vector.40", i64, i64, i16, %"struct.duckdb_parquet::_RowGroup__isset", [5 x i8] }>
%"class.duckdb::vector.34" = type { %"class.std::vector.35" }
%"class.std::vector.35" = type { %"struct.std::_Vector_base.36" }
%"struct.std::_Vector_base.36" = type { %"struct.std::_Vector_base<duckdb_parquet::ColumnChunk, std::allocator<duckdb_parquet::ColumnChunk>>::_Vector_impl" }
%"struct.std::_Vector_base<duckdb_parquet::ColumnChunk, std::allocator<duckdb_parquet::ColumnChunk>>::_Vector_impl" = type { %"struct.std::_Vector_base<duckdb_parquet::ColumnChunk, std::allocator<duckdb_parquet::ColumnChunk>>::_Vector_impl_data" }
%"struct.std::_Vector_base<duckdb_parquet::ColumnChunk, std::allocator<duckdb_parquet::ColumnChunk>>::_Vector_impl_data" = type { ptr, ptr, ptr }
%"class.duckdb::vector.40" = type { %"class.std::vector.41" }
%"class.std::vector.41" = type { %"struct.std::_Vector_base.42" }
%"struct.std::_Vector_base.42" = type { %"struct.std::_Vector_base<duckdb_parquet::SortingColumn, std::allocator<duckdb_parquet::SortingColumn>>::_Vector_impl" }
%"struct.std::_Vector_base<duckdb_parquet::SortingColumn, std::allocator<duckdb_parquet::SortingColumn>>::_Vector_impl" = type { %"struct.std::_Vector_base<duckdb_parquet::SortingColumn, std::allocator<duckdb_parquet::SortingColumn>>::_Vector_impl_data" }
%"struct.std::_Vector_base<duckdb_parquet::SortingColumn, std::allocator<duckdb_parquet::SortingColumn>>::_Vector_impl_data" = type { ptr, ptr, ptr }
%"struct.duckdb_parquet::_RowGroup__isset" = type { i8 }

; Function Attrs: inlinehint mustprogress uwtable
define linkonce_odr noundef nonnull align 8 dereferenceable(24) ptr @_ZN6duckdb6vectorIN14duckdb_parquet13SortingColumnELb1EEaSERKS3_(ptr noundef nonnull align 8 dereferenceable(24) %0, ptr noundef nonnull align 8 dereferenceable(24) %1) #5 comdat align 2 {
  %3 = alloca ptr, align 8
  %4 = alloca ptr, align 8
  store ptr %0, ptr %3, align 8, !tbaa !491
  store ptr %1, ptr %4, align 8, !tbaa !491
  %5 = load ptr, ptr %3, align 8
  %6 = load ptr, ptr %4, align 8, !tbaa !491
  %7 = call noundef nonnull align 8 dereferenceable(24) ptr @_ZNSt6vectorIN14duckdb_parquet13SortingColumnESaIS1_EEaSERKS3_(ptr noundef nonnull align 8 dereferenceable(24) %5, ptr noundef nonnull align 8 dereferenceable(24) %6)
  ret ptr %5
}

; Function Attrs: inlinehint mustprogress uwtable
define linkonce_odr noundef nonnull align 8 dereferenceable(24) ptr @_ZN6duckdb6vectorIN14duckdb_parquet11ColumnChunkELb1EEaSERKS3_(ptr noundef nonnull align 8 dereferenceable(24) %0, ptr noundef nonnull align 8 dereferenceable(24) %1) #5 comdat align 2 {
  %3 = alloca ptr, align 8
  %4 = alloca ptr, align 8
  store ptr %0, ptr %3, align 8, !tbaa !489
  store ptr %1, ptr %4, align 8, !tbaa !489
  %5 = load ptr, ptr %3, align 8
  %6 = load ptr, ptr %4, align 8, !tbaa !489
  %7 = call noundef nonnull align 8 dereferenceable(24) ptr @_ZNSt6vectorIN14duckdb_parquet11ColumnChunkESaIS1_EEaSERKS3_(ptr noundef nonnull align 8 dereferenceable(24) %5, ptr noundef nonnull align 8 dereferenceable(24) %6)
  ret ptr %5
}

; Function Attrs: mustprogress uwtable
define noundef nonnull align 8 dereferenceable(91) ptr @_ZN14duckdb_parquet8RowGroupaSERKS0_(ptr noundef nonnull align 8 dereferenceable(91) %0, ptr noundef nonnull align 8 dereferenceable(91) %1) #2 align 2 {
  %3 = alloca ptr, align 8
  %4 = alloca ptr, align 8
  store ptr %0, ptr %3, align 8, !tbaa !470
  store ptr %1, ptr %4, align 8, !tbaa !470
  %5 = load ptr, ptr %3, align 8
  %6 = load ptr, ptr %4, align 8, !tbaa !470
  %7 = getelementptr inbounds nuw %"class.duckdb_parquet::RowGroup", ptr %6, i32 0, i32 1
  %8 = getelementptr inbounds nuw %"class.duckdb_parquet::RowGroup", ptr %5, i32 0, i32 1
  %9 = call noundef nonnull align 8 dereferenceable(24) ptr @_ZN6duckdb6vectorIN14duckdb_parquet11ColumnChunkELb1EEaSERKS3_(ptr noundef nonnull align 8 dereferenceable(24) %8, ptr noundef nonnull align 8 dereferenceable(24) %7)
  %10 = load ptr, ptr %4, align 8, !tbaa !470
  %11 = getelementptr inbounds nuw %"class.duckdb_parquet::RowGroup", ptr %10, i32 0, i32 2
  %12 = load i64, ptr %11, align 8, !tbaa !472
  %13 = getelementptr inbounds nuw %"class.duckdb_parquet::RowGroup", ptr %5, i32 0, i32 2
  store i64 %12, ptr %13, align 8, !tbaa !472
  %14 = load ptr, ptr %4, align 8, !tbaa !470
  %15 = getelementptr inbounds nuw %"class.duckdb_parquet::RowGroup", ptr %14, i32 0, i32 3
  %16 = load i64, ptr %15, align 8, !tbaa !485
  %17 = getelementptr inbounds nuw %"class.duckdb_parquet::RowGroup", ptr %5, i32 0, i32 3
  store i64 %16, ptr %17, align 8, !tbaa !485
  %18 = load ptr, ptr %4, align 8, !tbaa !470
  %19 = getelementptr inbounds nuw %"class.duckdb_parquet::RowGroup", ptr %18, i32 0, i32 4
  %20 = getelementptr inbounds nuw %"class.duckdb_parquet::RowGroup", ptr %5, i32 0, i32 4
  %21 = call noundef nonnull align 8 dereferenceable(24) ptr @_ZN6duckdb6vectorIN14duckdb_parquet13SortingColumnELb1EEaSERKS3_(ptr noundef nonnull align 8 dereferenceable(24) %20, ptr noundef nonnull align 8 dereferenceable(24) %19)
  %22 = load ptr, ptr %4, align 8, !tbaa !470
  %23 = getelementptr inbounds nuw %"class.duckdb_parquet::RowGroup", ptr %22, i32 0, i32 5
  %24 = load i64, ptr %23, align 8, !tbaa !486
  %25 = getelementptr inbounds nuw %"class.duckdb_parquet::RowGroup", ptr %5, i32 0, i32 5
  store i64 %24, ptr %25, align 8, !tbaa !486
  %26 = load ptr, ptr %4, align 8, !tbaa !470
  %27 = getelementptr inbounds nuw %"class.duckdb_parquet::RowGroup", ptr %26, i32 0, i32 6
  %28 = load i64, ptr %27, align 8, !tbaa !487
  %29 = getelementptr inbounds nuw %"class.duckdb_parquet::RowGroup", ptr %5, i32 0, i32 6
  store i64 %28, ptr %29, align 8, !tbaa !487
  %30 = load ptr, ptr %4, align 8, !tbaa !470
  %31 = getelementptr inbounds nuw %"class.duckdb_parquet::RowGroup", ptr %30, i32 0, i32 7
  %32 = load i16, ptr %31, align 8, !tbaa !488
  %33 = getelementptr inbounds nuw %"class.duckdb_parquet::RowGroup", ptr %5, i32 0, i32 7
  store i16 %32, ptr %33, align 8, !tbaa !488
  %34 = load ptr, ptr %4, align 8, !tbaa !470
  %35 = getelementptr inbounds nuw %"class.duckdb_parquet::RowGroup", ptr %34, i32 0, i32 8
  %36 = getelementptr inbounds nuw %"class.duckdb_parquet::RowGroup", ptr %5, i32 0, i32 8
  call void @llvm.memcpy.p0.p0.i64(ptr align 2 %36, ptr align 2 %35, i64 1, i1 false), !tbaa.struct !111
  ret ptr %5
}