; Function Attrs: mustprogress uwtable
define noundef nonnull align 8 dereferenceable(91) ptr @_ZN14duckdb_parquet8RowGroupaSERKS0_(ptr noundef nonnull returned align 8 dereferenceable(91) %0, ptr noundef nonnull align 8 dereferenceable(91) %1) local_unnamed_addr #2 align 2 {
  %3 = getelementptr inbounds nuw i8, ptr %1, i64 8
  %4 = getelementptr inbounds nuw i8, ptr %0, i64 8
  %5 = tail call noundef nonnull align 8 dereferenceable(24) ptr @_ZNSt6vectorIN14duckdb_parquet11ColumnChunkESaIS1_EEaSERKS3_(ptr noundef nonnull align 8 dereferenceable(24) %4, ptr noundef nonnull align 8 dereferenceable(24) %3)
  %6 = getelementptr inbounds nuw i8, ptr %1, i64 32
  %7 = load i64, ptr %6, align 8, !tbaa !651
  %8 = getelementptr inbounds nuw i8, ptr %0, i64 32
  store i64 %7, ptr %8, align 8, !tbaa !651
  %9 = getelementptr inbounds nuw i8, ptr %1, i64 40
  %10 = load i64, ptr %9, align 8, !tbaa !662
  %11 = getelementptr inbounds nuw i8, ptr %0, i64 40
  store i64 %10, ptr %11, align 8, !tbaa !662
  %12 = getelementptr inbounds nuw i8, ptr %1, i64 48
  %13 = getelementptr inbounds nuw i8, ptr %0, i64 48
  %14 = tail call noundef nonnull align 8 dereferenceable(24) ptr @_ZNSt6vectorIN14duckdb_parquet13SortingColumnESaIS1_EEaSERKS3_(ptr noundef nonnull align 8 dereferenceable(24) %13, ptr noundef nonnull align 8 dereferenceable(24) %12)
  %15 = getelementptr inbounds nuw i8, ptr %1, i64 72
  %16 = load i64, ptr %15, align 8, !tbaa !663
  %17 = getelementptr inbounds nuw i8, ptr %0, i64 72
  store i64 %16, ptr %17, align 8, !tbaa !663
  %18 = getelementptr inbounds nuw i8, ptr %1, i64 80
  %19 = load i64, ptr %18, align 8, !tbaa !664
  %20 = getelementptr inbounds nuw i8, ptr %0, i64 80
  store i64 %19, ptr %20, align 8, !tbaa !664
  %21 = getelementptr inbounds nuw i8, ptr %1, i64 88
  %22 = load i16, ptr %21, align 8, !tbaa !665
  %23 = getelementptr inbounds nuw i8, ptr %0, i64 88
  store i16 %22, ptr %23, align 8, !tbaa !665
  %24 = getelementptr inbounds nuw i8, ptr %1, i64 90
  %25 = getelementptr inbounds nuw i8, ptr %0, i64 90
  %26 = load i8, ptr %24, align 2, !tbaa !38
  store i8 %26, ptr %25, align 2, !tbaa !38
  ret ptr %0
}